target datalayout = "e-m:e-p270:32:32-p271:32:32-p272:64:64-i64:64-i128:128-f80:128-n8:16:32:64-S128"
target triple = "x86_64-unknown-linux-gnu"

@.str.61 = private unnamed_addr constant [20 x i8] c"PNG write error: {}\00", align 1

; Function Attrs: mustprogress uwtable
define internal void @_ZN18OpenImageIO_v2_6_07PNG_pvtL13wrerr_handlerEP14png_struct_defPKc(ptr noundef %png, ptr noundef %data) #6 {
entry:
  %png.addr = alloca ptr, align 8
  %data.addr = alloca ptr, align 8
  %outp = alloca ptr, align 8
  store ptr %png, ptr %png.addr, align 8
  store ptr %data, ptr %data.addr, align 8
  %0 = load ptr, ptr %png.addr, align 8
  %call = call ptr @png_get_error_ptr(ptr noundef %0)
  store ptr %call, ptr %outp, align 8
  %1 = load ptr, ptr %outp, align 8
  %tobool = icmp ne ptr %1, null
  br i1 %tobool, label %land.lhs.true, label %if.end

land.lhs.true:                                    ; preds = %entry
  %2 = load ptr, ptr %data.addr, align 8
  %tobool1 = icmp ne ptr %2, null
  br i1 %tobool1, label %if.then, label %if.end

if.then:                                          ; preds = %land.lhs.true
  %3 = load ptr, ptr %outp, align 8
  call void @_ZNK18OpenImageIO_v2_6_011ImageOutput8errorfmtIJPKcEEEvS3_DpRKT_(ptr noundef nonnull align 8 dereferenceable(184) %3, ptr noundef @.str.61, ptr noundef nonnull align 8 dereferenceable(8) %data.addr)
  br label %if.end

if.end:                                           ; preds = %if.then, %land.lhs.true, %entry
  ret void
}