; Function Attrs: mustprogress uwtable
define internal void @_ZN18OpenImageIO_v2_6_07PNG_pvtL13wrerr_handlerEP14png_struct_defPKc(ptr noundef %png, ptr noundef %data) #5 {
entry:
  %data.addr = alloca ptr, align 8
  store ptr %data, ptr %data.addr, align 8
  %call = tail call ptr @png_get_error_ptr(ptr noundef %png)
  %tobool = icmp ne ptr %call, null
  %tobool1 = icmp ne ptr %data, null
  %or.cond = and i1 %tobool, %tobool1
  br i1 %or.cond, label %if.then, label %if.end

if.then:                                          ; preds = %entry
  call void @_ZNK18OpenImageIO_v2_6_011ImageOutput8errorfmtIJPKcEEEvS3_DpRKT_(ptr noundef nonnull align 8 dereferenceable(184) %call, ptr noundef nonnull @.str.61, ptr noundef nonnull align 8 dereferenceable(8) %data.addr)
  br label %if.end

if.end:                                           ; preds = %if.then, %entry
  ret void
}